; Function Attrs: nounwind uwtable
define ptr @wolfSSLv23_server_method_ex(ptr noundef readnone captures(none) %0) local_unnamed_addr #0 {
  %2 = tail call ptr @wolfSSL_Malloc(i64 noundef 4) #22
  %.not = icmp eq ptr %2, null
  br i1 %.not, label %7, label %3

3:                                                ; preds = %1
  %4 = tail call i16 @MakeTLSv1_3() #22
  tail call void @InitSSL_Method(ptr noundef nonnull %2, i16 %4) #22
  %5 = getelementptr inbounds nuw i8, ptr %2, i64 3
  store i8 1, ptr %5, align 1, !tbaa !236
  %6 = getelementptr inbounds nuw i8, ptr %2, i64 2
  store i8 0, ptr %6, align 1, !tbaa !128
  br label %7

7:                                                ; preds = %3, %1
  ret ptr %2
}